target datalayout = "e-m:e-p270:32:32-p271:32:32-p272:64:64-i64:64-i128:128-f80:128-n8:16:32:64-S128"
target triple = "x86_64-unknown-linux-gnu"

%struct.V9fsState = type { %struct.anon, %struct.anon.0, ptr, ptr, %struct.FsContext, ptr, i32, i32, [128 x %struct.V9fsPDU], ptr, %struct.CoRwlock, i32, ptr, %struct.V9fsConf, %struct.stat, i64, %struct.qht, %struct.qht, %struct.qht, i64, i16, i64 }
%struct.anon = type { ptr }
%struct.anon.0 = type { ptr }
%struct.FsContext = type { i32, ptr, i32, ptr, %struct.ExtendedOps, ptr, ptr, i32, i32 }
%struct.ExtendedOps = type { ptr }
%struct.V9fsPDU = type { i32, i16, i8, i8, %struct.CoQueue, ptr, %struct.anon.2, i32 }
%struct.CoQueue = type { %struct.anon.1 }
%struct.anon.1 = type { ptr, ptr }
%struct.anon.2 = type { ptr, ptr }
%struct.CoRwlock = type { %struct.CoMutex, i32, %struct.anon.4 }
%struct.CoMutex = type { i32, ptr, %struct.anon.3, %struct.anon.3, i32, i32, ptr }
%struct.anon.3 = type { ptr }
%struct.anon.4 = type { ptr, ptr }
%struct.V9fsConf = type { ptr, ptr }
%struct.stat = type { i64, i64, i64, i32, i32, i32, i32, i64, i64, i64, i64, %struct.timespec, %struct.timespec, %struct.timespec, [3 x i64] }
%struct.timespec = type { i64, i64 }
%struct.qht = type { ptr, ptr, %struct.QemuMutex, i32 }
%struct.QemuMutex = type { %union.pthread_mutex_t, i8 }
%union.pthread_mutex_t = type { %struct.__pthread_mutex_s }
%struct.__pthread_mutex_s = type { i32, i32, i32, i32, i32, i16, i16, %struct.__pthread_internal_list }
%struct.__pthread_internal_list = type { ptr, ptr }
%struct.P9MsgHeader = type <{ i32, i8, i16 }>

; Function Attrs: nounwind sspstrong uwtable
define internal zeroext i1 @is_read_only_op(ptr noundef %pdu) #0 {
entry:
  %retval = alloca i1, align 1
  %pdu.addr = alloca ptr, align 8
  store ptr %pdu, ptr %pdu.addr, align 8
  %0 = load ptr, ptr %pdu.addr, align 8
  %id = getelementptr inbounds %struct.V9fsPDU, ptr %0, i32 0, i32 2
  %1 = load i8, ptr %id, align 2
  %conv = zext i8 %1 to i32
  switch i32 %conv, label %sw.default [
    i32 40, label %sw.bb
    i32 8, label %sw.bb
    i32 24, label %sw.bb
    i32 30, label %sw.bb
    i32 52, label %sw.bb
    i32 54, label %sw.bb
    i32 22, label %sw.bb
    i32 100, label %sw.bb
    i32 12, label %sw.bb
    i32 104, label %sw.bb
    i32 124, label %sw.bb
    i32 110, label %sw.bb
    i32 120, label %sw.bb
    i32 50, label %sw.bb
    i32 112, label %sw.bb
    i32 116, label %sw.bb
    i32 102, label %sw.bb
    i32 108, label %sw.bb
  ]

sw.bb:                                            ; preds = %entry, %entry, %entry, %entry, %entry, %entry, %entry, %entry, %entry, %entry, %entry, %entry, %entry, %entry, %entry, %entry, %entry, %entry
  store i1 true, ptr %retval, align 1
  br label %return

sw.default:                                       ; preds = %entry
  store i1 false, ptr %retval, align 1
  br label %return

return:                                           ; preds = %sw.default, %sw.bb
  %2 = load i1, ptr %retval, align 1
  ret i1 %2
}

; Function Attrs: nounwind sspstrong uwtable
define internal zeroext i1 @is_ro_export(ptr noundef %ctx) #0 {
entry:
  %ctx.addr = alloca ptr, align 8
  store ptr %ctx, ptr %ctx.addr, align 8
  %0 = load ptr, ptr %ctx.addr, align 8
  %export_flags = getelementptr inbounds %struct.FsContext, ptr %0, i32 0, i32 2
  %1 = load i32, ptr %export_flags, align 8
  %and = and i32 %1, 64
  %tobool = icmp ne i32 %and, 0
  ret i1 %tobool
}

; Function Attrs: nounwind sspstrong uwtable
define internal zeroext i16 @le16_to_cpu(i16 noundef zeroext %v) #0 {
entry:
  %v.addr = alloca i16, align 2
  store i16 %v, ptr %v.addr, align 2
  %0 = load i16, ptr %v.addr, align 2
  ret i16 %0
}

; Function Attrs: nounwind sspstrong uwtable
define internal i32 @le32_to_cpu(i32 noundef %v) #0 {
entry:
  %v.addr = alloca i32, align 4
  store i32 %v, ptr %v.addr, align 4
  %0 = load i32, ptr %v.addr, align 4
  ret i32 %0
}

; Function Attrs: nounwind sspstrong uwtable
define dso_local void @pdu_submit(ptr noundef %pdu, ptr noundef %hdr) #0 {
entry:
  %pdu.addr = alloca ptr, align 8
  %hdr.addr = alloca ptr, align 8
  %co = alloca ptr, align 8
  %handler = alloca ptr, align 8
  %s = alloca ptr, align 8
  store ptr %pdu, ptr %pdu.addr, align 8
  store ptr %hdr, ptr %hdr.addr, align 8
  %0 = load ptr, ptr %pdu.addr, align 8
  %s1 = getelementptr inbounds %struct.V9fsPDU, ptr %0, i32 0, i32 5
  %1 = load ptr, ptr %s1, align 8
  store ptr %1, ptr %s, align 8
  %2 = load ptr, ptr %hdr.addr, align 8
  %size_le = getelementptr inbounds %struct.P9MsgHeader, ptr %2, i32 0, i32 0
  %3 = load i32, ptr %size_le, align 1
  %call = call i32 @le32_to_cpu(i32 noundef %3)
  %4 = load ptr, ptr %pdu.addr, align 8
  %size = getelementptr inbounds %struct.V9fsPDU, ptr %4, i32 0, i32 0
  store i32 %call, ptr %size, align 8
  %5 = load ptr, ptr %hdr.addr, align 8
  %id = getelementptr inbounds %struct.P9MsgHeader, ptr %5, i32 0, i32 1
  %6 = load i8, ptr %id, align 1
  %7 = load ptr, ptr %pdu.addr, align 8
  %id2 = getelementptr inbounds %struct.V9fsPDU, ptr %7, i32 0, i32 2
  store i8 %6, ptr %id2, align 2
  %8 = load ptr, ptr %hdr.addr, align 8
  %tag_le = getelementptr inbounds %struct.P9MsgHeader, ptr %8, i32 0, i32 2
  %9 = load i16, ptr %tag_le, align 1
  %call3 = call zeroext i16 @le16_to_cpu(i16 noundef zeroext %9)
  %10 = load ptr, ptr %pdu.addr, align 8
  %tag = getelementptr inbounds %struct.V9fsPDU, ptr %10, i32 0, i32 1
  store i16 %call3, ptr %tag, align 4
  %11 = load ptr, ptr %pdu.addr, align 8
  %id4 = getelementptr inbounds %struct.V9fsPDU, ptr %11, i32 0, i32 2
  %12 = load i8, ptr %id4, align 2
  %conv = zext i8 %12 to i64
  %cmp = icmp uge i64 %conv, 127
  br i1 %cmp, label %if.then, label %lor.lhs.false

lor.lhs.false:                                    ; preds = %entry
  %13 = load ptr, ptr %pdu.addr, align 8
  %id6 = getelementptr inbounds %struct.V9fsPDU, ptr %13, i32 0, i32 2
  %14 = load i8, ptr %id6, align 2
  %idxprom = zext i8 %14 to i64
  %arrayidx = getelementptr [127 x ptr], ptr @pdu_co_handlers, i64 0, i64 %idxprom
  %15 = load ptr, ptr %arrayidx, align 8
  %cmp7 = icmp eq ptr %15, null
  br i1 %cmp7, label %if.then, label %if.else

if.then:                                          ; preds = %lor.lhs.false, %entry
  store ptr @v9fs_op_not_supp, ptr %handler, align 8
  br label %if.end17

if.else:                                          ; preds = %lor.lhs.false
  %16 = load ptr, ptr %s, align 8
  %ctx = getelementptr inbounds %struct.V9fsState, ptr %16, i32 0, i32 4
  %call9 = call zeroext i1 @is_ro_export(ptr noundef %ctx)
  br i1 %call9, label %land.lhs.true, label %if.else13

land.lhs.true:                                    ; preds = %if.else
  %17 = load ptr, ptr %pdu.addr, align 8
  %call11 = call zeroext i1 @is_read_only_op(ptr noundef %17)
  br i1 %call11, label %if.else13, label %if.then12

if.then12:                                        ; preds = %land.lhs.true
  store ptr @v9fs_fs_ro, ptr %handler, align 8
  br label %if.end

if.else13:                                        ; preds = %land.lhs.true, %if.else
  %18 = load ptr, ptr %pdu.addr, align 8
  %id14 = getelementptr inbounds %struct.V9fsPDU, ptr %18, i32 0, i32 2
  %19 = load i8, ptr %id14, align 2
  %idxprom15 = zext i8 %19 to i64
  %arrayidx16 = getelementptr [127 x ptr], ptr @pdu_co_handlers, i64 0, i64 %idxprom15
  %20 = load ptr, ptr %arrayidx16, align 8
  store ptr %20, ptr %handler, align 8
  br label %if.end

if.end:                                           ; preds = %if.else13, %if.then12
  br label %if.end17

if.end17:                                         ; preds = %if.end, %if.then
  %21 = load ptr, ptr %pdu.addr, align 8
  %complete = getelementptr inbounds %struct.V9fsPDU, ptr %21, i32 0, i32 4
  call void @qemu_co_queue_init(ptr noundef %complete)
  %22 = load ptr, ptr %handler, align 8
  %23 = load ptr, ptr %pdu.addr, align 8
  %call18 = call ptr @qemu_coroutine_create(ptr noundef %22, ptr noundef %23)
  store ptr %call18, ptr %co, align 8
  %24 = load ptr, ptr %co, align 8
  call void @qemu_coroutine_enter(ptr noundef %24)
  ret void
}