; Function Attrs: nounwind sspstrong uwtable
define dso_local void @pdu_submit(ptr noundef initializes((0, 7)) %pdu, ptr noundef readonly captures(none) %hdr) local_unnamed_addr #0 {
entry:
  %s1 = getelementptr inbounds nuw i8, ptr %pdu, i64 24
  %0 = load ptr, ptr %s1, align 8
  %1 = load i32, ptr %hdr, align 1
  store i32 %1, ptr %pdu, align 8
  %id = getelementptr inbounds nuw i8, ptr %hdr, i64 4
  %2 = load i8, ptr %id, align 1
  %id2 = getelementptr inbounds nuw i8, ptr %pdu, i64 6
  store i8 %2, ptr %id2, align 2
  %tag_le = getelementptr inbounds nuw i8, ptr %hdr, i64 5
  %3 = load i16, ptr %tag_le, align 1
  %tag = getelementptr inbounds nuw i8, ptr %pdu, i64 4
  store i16 %3, ptr %tag, align 4
  %cmp = icmp ugt i8 %2, 126
  br i1 %cmp, label %if.end17, label %lor.lhs.false

lor.lhs.false:                                    ; preds = %entry
  %conv = zext nneg i8 %2 to i64
  %arrayidx = getelementptr [127 x ptr], ptr @pdu_co_handlers, i64 0, i64 %conv
  %4 = load ptr, ptr %arrayidx, align 8
  %cmp7 = icmp eq ptr %4, null
  br i1 %cmp7, label %if.end17, label %if.else

if.else:                                          ; preds = %lor.lhs.false
  %5 = getelementptr i8, ptr %0, i64 48
  %ctx.val = load i32, ptr %5, align 8
  %and.i = and i32 %ctx.val, 64
  %tobool.i.not = icmp eq i32 %and.i, 0
  br i1 %tobool.i.not, label %if.end17, label %land.lhs.true

land.lhs.true:                                    ; preds = %if.else
  switch i8 %2, label %if.end17 [
    i8 40, label %is_read_only_op.exit.thread
    i8 8, label %is_read_only_op.exit.thread
    i8 24, label %is_read_only_op.exit.thread
    i8 30, label %is_read_only_op.exit.thread
    i8 52, label %is_read_only_op.exit.thread
    i8 54, label %is_read_only_op.exit.thread
    i8 22, label %is_read_only_op.exit.thread
    i8 100, label %is_read_only_op.exit.thread
    i8 12, label %is_read_only_op.exit.thread
    i8 104, label %is_read_only_op.exit.thread
    i8 124, label %is_read_only_op.exit.thread
    i8 110, label %is_read_only_op.exit.thread
    i8 120, label %is_read_only_op.exit.thread
    i8 50, label %is_read_only_op.exit.thread
    i8 112, label %is_read_only_op.exit.thread
    i8 116, label %is_read_only_op.exit.thread
    i8 102, label %is_read_only_op.exit.thread
    i8 108, label %is_read_only_op.exit.thread
  ]

is_read_only_op.exit.thread:                      ; preds = %land.lhs.true, %land.lhs.true, %land.lhs.true, %land.lhs.true, %land.lhs.true, %land.lhs.true, %land.lhs.true, %land.lhs.true, %land.lhs.true, %land.lhs.true, %land.lhs.true, %land.lhs.true, %land.lhs.true, %land.lhs.true, %land.lhs.true, %land.lhs.true, %land.lhs.true, %land.lhs.true
  br label %if.end17

if.end17:                                         ; preds = %if.else, %is_read_only_op.exit.thread, %land.lhs.true, %entry, %lor.lhs.false
  %handler.0 = phi ptr [ @v9fs_op_not_supp, %lor.lhs.false ], [ @v9fs_op_not_supp, %entry ], [ @v9fs_fs_ro, %land.lhs.true ], [ %4, %is_read_only_op.exit.thread ], [ %4, %if.else ]
  %complete = getelementptr inbounds nuw i8, ptr %pdu, i64 8
  tail call void @qemu_co_queue_init(ptr noundef nonnull %complete) #24
  %call18 = tail call ptr @qemu_coroutine_create(ptr noundef nonnull %handler.0, ptr noundef nonnull %pdu) #24
  tail call void @qemu_coroutine_enter(ptr noundef %call18) #24
  ret void
}